target datalayout = "e-m:e-p270:32:32-p271:32:32-p272:64:64-i64:64-i128:128-f80:128-n8:16:32:64-S128"
target triple = "x86_64-pc-linux-gnu"

@.str.155 = private unnamed_addr constant [32 x i8] c"%s: bitstr_bits != cpu_set_bits\00", align 1
@__func__._set_cpu_set_bitstr = private unnamed_addr constant [20 x i8] c"_set_cpu_set_bitstr\00", align 1
@.str.156 = private unnamed_addr constant [56 x i8] c"%s: cpu_set_bitstr is empty! No CPU affinity for device\00", align 1

; Function Attrs: nounwind uwtable
define internal void @_set_cpu_set_bitstr(ptr noundef %0, ptr noundef %1, i32 noundef %2) #0 {
  %4 = alloca ptr, align 8
  %5 = alloca ptr, align 8
  %6 = alloca i32, align 4
  %7 = alloca i32, align 4
  %8 = alloca i32, align 4
  %9 = alloca i32, align 4
  %10 = alloca i32, align 4
  %11 = alloca i32, align 4
  %12 = alloca i32, align 4
  %13 = alloca ptr, align 8
  %14 = alloca i8, align 1
  %15 = alloca i8, align 1
  %16 = alloca i32, align 4
  store ptr %0, ptr %4, align 8
  store ptr %1, ptr %5, align 8
  store i32 %2, ptr %6, align 4
  call void @llvm.lifetime.start.p0(i64 4, ptr %7) #7
  call void @llvm.lifetime.start.p0(i64 4, ptr %8) #7
  call void @llvm.lifetime.start.p0(i64 4, ptr %9) #7
  call void @llvm.lifetime.start.p0(i64 4, ptr %10) #7
  call void @llvm.lifetime.start.p0(i64 4, ptr %11) #7
  %17 = load ptr, ptr %4, align 8
  %18 = call i64 @slurm_bit_size(ptr noundef %17)
  %19 = trunc i64 %18 to i32
  store i32 %19, ptr %11, align 4
  call void @llvm.lifetime.start.p0(i64 4, ptr %12) #7
  %20 = load i32, ptr %6, align 4
  %21 = zext i32 %20 to i64
  %22 = mul i64 %21, 64
  %23 = trunc i64 %22 to i32
  store i32 %23, ptr %12, align 4
  %24 = load i32, ptr %11, align 4
  %25 = load i32, ptr %12, align 4
  %26 = icmp ne i32 %24, %25
  br i1 %26, label %27, label %28

27:                                               ; preds = %3
  call void (ptr, ...) @slurm_fatal(ptr noundef @.str.155, ptr noundef @__func__._set_cpu_set_bitstr) #9
  unreachable

28:                                               ; preds = %3
  %29 = load i32, ptr %11, align 4
  %30 = sub nsw i32 %29, 1
  store i32 %30, ptr %10, align 4
  %31 = load i32, ptr %6, align 4
  %32 = sub i32 %31, 1
  store i32 %32, ptr %7, align 4
  br label %33

33:                                               ; preds = %89, %28
  %34 = load i32, ptr %7, align 4
  %35 = icmp sge i32 %34, 0
  br i1 %35, label %36, label %92

36:                                               ; preds = %33
  call void @llvm.lifetime.start.p0(i64 8, ptr %13) #7
  %37 = load ptr, ptr %5, align 8
  %38 = load i32, ptr %7, align 4
  %39 = sext i32 %38 to i64
  %40 = getelementptr inbounds i64, ptr %37, i64 %39
  store ptr %40, ptr %13, align 8
  store i32 7, ptr %8, align 4
  br label %41

41:                                               ; preds = %85, %36
  %42 = load i32, ptr %8, align 4
  %43 = icmp sge i32 %42, 0
  br i1 %43, label %44, label %88

44:                                               ; preds = %41
  call void @llvm.lifetime.start.p0(i64 1, ptr %14) #7
  %45 = load ptr, ptr %13, align 8
  %46 = load i32, ptr %8, align 4
  %47 = sext i32 %46 to i64
  %48 = getelementptr inbounds i8, ptr %45, i64 %47
  %49 = load i8, ptr %48, align 1
  store i8 %49, ptr %14, align 1
  call void @llvm.lifetime.start.p0(i64 1, ptr %15) #7
  %50 = load i8, ptr %14, align 1
  %51 = zext i8 %50 to i32
  %52 = icmp eq i32 %51, 0
  br i1 %52, label %53, label %56

53:                                               ; preds = %44
  %54 = load i32, ptr %10, align 4
  %55 = sub nsw i32 %54, 8
  store i32 %55, ptr %10, align 4
  store i32 7, ptr %16, align 4
  br label %82

56:                                               ; preds = %44
  store i8 -128, ptr %15, align 1
  store i32 0, ptr %9, align 4
  br label %57

57:                                               ; preds = %78, %56
  %58 = load i32, ptr %9, align 4
  %59 = icmp slt i32 %58, 8
  br i1 %59, label %60, label %81

60:                                               ; preds = %57
  %61 = load i8, ptr %14, align 1
  %62 = zext i8 %61 to i32
  %63 = load i8, ptr %15, align 1
  %64 = zext i8 %63 to i32
  %65 = and i32 %62, %64
  %66 = icmp ne i32 %65, 0
  br i1 %66, label %67, label %71

67:                                               ; preds = %60
  %68 = load ptr, ptr %4, align 8
  %69 = load i32, ptr %10, align 4
  %70 = sext i32 %69 to i64
  call void @slurm_bit_set(ptr noundef %68, i64 noundef %70)
  br label %71

71:                                               ; preds = %67, %60
  %72 = load i8, ptr %15, align 1
  %73 = zext i8 %72 to i32
  %74 = ashr i32 %73, 1
  %75 = trunc i32 %74 to i8
  store i8 %75, ptr %15, align 1
  %76 = load i32, ptr %10, align 4
  %77 = add nsw i32 %76, -1
  store i32 %77, ptr %10, align 4
  br label %78

78:                                               ; preds = %71
  %79 = load i32, ptr %9, align 4
  %80 = add nsw i32 %79, 1
  store i32 %80, ptr %9, align 4
  br label %57, !llvm.loop !25

81:                                               ; preds = %57
  store i32 0, ptr %16, align 4
  br label %82

82:                                               ; preds = %81, %53
  call void @llvm.lifetime.end.p0(i64 1, ptr %15) #7
  call void @llvm.lifetime.end.p0(i64 1, ptr %14) #7
  %83 = load i32, ptr %16, align 4
  switch i32 %83, label %98 [
    i32 0, label %84
    i32 7, label %85
  ]

84:                                               ; preds = %82
  br label %85

85:                                               ; preds = %84, %82
  %86 = load i32, ptr %8, align 4
  %87 = add nsw i32 %86, -1
  store i32 %87, ptr %8, align 4
  br label %41, !llvm.loop !26

88:                                               ; preds = %41
  call void @llvm.lifetime.end.p0(i64 8, ptr %13) #7
  br label %89

89:                                               ; preds = %88
  %90 = load i32, ptr %7, align 4
  %91 = add nsw i32 %90, -1
  store i32 %91, ptr %7, align 4
  br label %33, !llvm.loop !27

92:                                               ; preds = %33
  %93 = load ptr, ptr %4, align 8
  %94 = call i32 @slurm_bit_set_count(ptr noundef %93)
  %95 = icmp eq i32 %94, 0
  br i1 %95, label %96, label %97

96:                                               ; preds = %92
  call void (ptr, ...) @slurm_fatal(ptr noundef @.str.156, ptr noundef @__func__._set_cpu_set_bitstr) #9
  unreachable

97:                                               ; preds = %92
  call void @llvm.lifetime.end.p0(i64 4, ptr %12) #7
  call void @llvm.lifetime.end.p0(i64 4, ptr %11) #7
  call void @llvm.lifetime.end.p0(i64 4, ptr %10) #7
  call void @llvm.lifetime.end.p0(i64 4, ptr %9) #7
  call void @llvm.lifetime.end.p0(i64 4, ptr %8) #7
  call void @llvm.lifetime.end.p0(i64 4, ptr %7) #7
  ret void

98:                                               ; preds = %82
  unreachable
}