; Function Attrs: nounwind uwtable
define internal fastcc void @_set_cpu_set_bitstr(ptr noundef %0, ptr noundef nonnull readonly captures(none) %1) unnamed_addr #0 {
  %3 = tail call i64 @slurm_bit_size(ptr noundef %0) #12
  %4 = and i64 %3, 4294967295
  %.not = icmp eq i64 %4, 32768
  br i1 %.not, label %.preheader31, label %5

5:                                                ; preds = %2
  tail call void (ptr, ...) @slurm_fatal(ptr noundef nonnull @.str.155, ptr noundef nonnull @__func__._set_cpu_set_bitstr) #15
  unreachable

.preheader31:                                     ; preds = %2, %21
  %indvars.iv43 = phi i64 [ %indvars.iv.next44, %21 ], [ 511, %2 ]
  %.02737 = phi i32 [ %.2, %21 ], [ 32767, %2 ]
  %6 = getelementptr inbounds nuw i64, ptr %1, i64 %indvars.iv43
  br label %7

7:                                                ; preds = %.preheader31, %.loopexit
  %indvars.iv40 = phi i64 [ 7, %.preheader31 ], [ %indvars.iv.next41, %.loopexit ]
  %.135 = phi i32 [ %.02737, %.preheader31 ], [ %.2, %.loopexit ]
  %8 = getelementptr inbounds nuw i8, ptr %6, i64 %indvars.iv40
  %9 = load i8, ptr %8, align 1
  %10 = zext i8 %9 to i32
  %11 = icmp eq i8 %9, 0
  br i1 %11, label %13, label %.preheader.preheader

.preheader.preheader:                             ; preds = %7
  %12 = sext i32 %.135 to i64
  br label %.preheader

13:                                               ; preds = %7
  %14 = add nsw i32 %.135, -8
  br label %.loopexit

.preheader:                                       ; preds = %.preheader.preheader, %17
  %indvars.iv = phi i64 [ %12, %.preheader.preheader ], [ %indvars.iv.next, %17 ]
  %.034 = phi i32 [ 128, %.preheader.preheader ], [ %18, %17 ]
  %.02633 = phi i32 [ 0, %.preheader.preheader ], [ %19, %17 ]
  %15 = and i32 %.034, %10
  %.not30 = icmp eq i32 %15, 0
  br i1 %.not30, label %17, label %16

16:                                               ; preds = %.preheader
  tail call void @slurm_bit_set(ptr noundef %0, i64 noundef %indvars.iv) #12
  br label %17

17:                                               ; preds = %16, %.preheader
  %18 = lshr i32 %.034, 1
  %indvars.iv.next = add nsw i64 %indvars.iv, -1
  %19 = add nuw nsw i32 %.02633, 1
  %exitcond.not = icmp eq i32 %19, 8
  br i1 %exitcond.not, label %.loopexit.loopexit, label %.preheader, !llvm.loop !25

.loopexit.loopexit:                               ; preds = %17
  %20 = trunc nsw i64 %indvars.iv.next to i32
  br label %.loopexit

.loopexit:                                        ; preds = %.loopexit.loopexit, %13
  %.2 = phi i32 [ %14, %13 ], [ %20, %.loopexit.loopexit ]
  %indvars.iv.next41 = add nsw i64 %indvars.iv40, -1
  %.not46 = icmp eq i64 %indvars.iv40, 0
  br i1 %.not46, label %21, label %7, !llvm.loop !26

21:                                               ; preds = %.loopexit
  %indvars.iv.next44 = add nsw i64 %indvars.iv43, -1
  %.not47 = icmp eq i64 %indvars.iv43, 0
  br i1 %.not47, label %22, label %.preheader31, !llvm.loop !27

22:                                               ; preds = %21
  %23 = tail call i32 @slurm_bit_set_count(ptr noundef %0) #12
  %24 = icmp eq i32 %23, 0
  br i1 %24, label %25, label %26

25:                                               ; preds = %22
  tail call void (ptr, ...) @slurm_fatal(ptr noundef nonnull @.str.156, ptr noundef nonnull @__func__._set_cpu_set_bitstr) #15
  unreachable

26:                                               ; preds = %22
  ret void
}